; Function Attrs: nounwind uwtable
define internal ptr @tracemalloc_get_traceback(ptr readnone captures(none) %0, ptr noundef %1) #0 {
  %3 = alloca i32, align 4
  %4 = alloca ptr, align 8
  call void @llvm.lifetime.start.p0(i64 4, ptr nonnull %3) #11
  call void @llvm.lifetime.start.p0(i64 8, ptr nonnull %4) #11
  %5 = call i32 (ptr, ptr, ...) @PyArg_ParseTuple(ptr noundef %1, ptr noundef nonnull @.str.216, ptr noundef nonnull %3, ptr noundef nonnull %4) #11
  %.not = icmp eq i32 %5, 0
  br i1 %.not, label %14, label %6

6:                                                ; preds = %2
  %7 = load ptr, ptr %4, align 8, !tbaa !9
  %8 = call ptr @PyLong_AsVoidPtr(ptr noundef %7) #11
  %9 = call ptr @PyErr_Occurred() #11
  %.not3 = icmp eq ptr %9, null
  br i1 %.not3, label %10, label %14

10:                                               ; preds = %6
  %11 = load i32, ptr %3, align 4, !tbaa !25
  %12 = ptrtoint ptr %8 to i64
  %13 = call ptr @_PyTraceMalloc_GetTraceback(i32 noundef %11, i64 noundef %12) #11
  br label %14

14:                                               ; preds = %10, %6, %2
  %.0 = phi ptr [ null, %2 ], [ %13, %10 ], [ null, %6 ]
  call void @llvm.lifetime.end.p0(i64 8, ptr nonnull %4) #11
  call void @llvm.lifetime.end.p0(i64 4, ptr nonnull %3) #11
  ret ptr %.0
}